target datalayout = "e-m:e-p270:32:32-p271:32:32-p272:64:64-i64:64-i128:128-f80:128-n8:16:32:64-S128"
target triple = "x86_64-pc-linux-gnu"

%struct.lxb_html_tree = type { ptr, ptr, ptr, ptr, ptr, ptr, ptr, %struct.lxb_html_tree_pending_table_t, ptr, i8, i8, i8, i8, i8, i8, ptr, ptr, ptr, i32, i64 }
%struct.lxb_html_tree_pending_table_t = type { ptr, i8 }
%struct.lxb_dom_node = type { %struct.lxb_dom_event_target, i64, i64, i64, ptr, ptr, ptr, ptr, ptr, ptr, ptr, i32, i64 }
%struct.lxb_dom_event_target = type { ptr }
%struct.lexbor_array_t = type { ptr, i64, i64 }

; Function Attrs: nounwind uwtable
define internal zeroext i1 @lxb_html_tag_is_category(i64 noundef %0, i64 noundef %1, i32 noundef %2) #0 {
  %4 = alloca i1, align 1
  %5 = alloca i64, align 8
  %6 = alloca i64, align 8
  %7 = alloca i32, align 4
  store i64 %0, ptr %5, align 8
  store i64 %1, ptr %6, align 8
  store i32 %2, ptr %7, align 4
  %8 = load i64, ptr %5, align 8
  %9 = icmp ult i64 %8, 196
  br i1 %9, label %10, label %22

10:                                               ; preds = %3
  %11 = load i64, ptr %6, align 8
  %12 = icmp ult i64 %11, 8
  br i1 %12, label %13, label %22

13:                                               ; preds = %10
  %14 = load i64, ptr %5, align 8
  %15 = getelementptr inbounds [196 x [8 x i32]], ptr @lxb_html_tag_res_cats, i64 0, i64 %14
  %16 = load i64, ptr %6, align 8
  %17 = getelementptr inbounds [8 x i32], ptr %15, i64 0, i64 %16
  %18 = load i32, ptr %17, align 4
  %19 = load i32, ptr %7, align 4
  %20 = and i32 %18, %19
  %21 = icmp ne i32 %20, 0
  store i1 %21, ptr %4, align 1
  br label %26

22:                                               ; preds = %10, %3
  %23 = load i32, ptr %7, align 4
  %24 = and i32 129, %23
  %25 = icmp ne i32 %24, 0
  store i1 %25, ptr %4, align 1
  br label %26

26:                                               ; preds = %22, %13
  %27 = load i1, ptr %4, align 1
  ret i1 %27
}

; Function Attrs: nounwind uwtable
define hidden ptr @lxb_html_tree_element_in_scope_tbody_thead_tfoot(ptr noundef %0) #0 {
  %2 = alloca ptr, align 8
  %3 = alloca ptr, align 8
  %4 = alloca ptr, align 8
  %5 = alloca i64, align 8
  %6 = alloca ptr, align 8
  store ptr %0, ptr %3, align 8
  %7 = load ptr, ptr %3, align 8
  %8 = getelementptr inbounds %struct.lxb_html_tree, ptr %7, i32 0, i32 4
  %9 = load ptr, ptr %8, align 8
  %10 = getelementptr inbounds %struct.lexbor_array_t, ptr %9, i32 0, i32 2
  %11 = load i64, ptr %10, align 8
  store i64 %11, ptr %5, align 8
  %12 = load ptr, ptr %3, align 8
  %13 = getelementptr inbounds %struct.lxb_html_tree, ptr %12, i32 0, i32 4
  %14 = load ptr, ptr %13, align 8
  %15 = getelementptr inbounds %struct.lexbor_array_t, ptr %14, i32 0, i32 0
  %16 = load ptr, ptr %15, align 8
  store ptr %16, ptr %6, align 8
  br label %17

17:                                               ; preds = %45, %1
  %18 = load i64, ptr %5, align 8
  %19 = icmp ne i64 %18, 0
  br i1 %19, label %20, label %46

20:                                               ; preds = %17
  %21 = load i64, ptr %5, align 8
  %22 = add i64 %21, -1
  store i64 %22, ptr %5, align 8
  %23 = load ptr, ptr %6, align 8
  %24 = load i64, ptr %5, align 8
  %25 = getelementptr inbounds ptr, ptr %23, i64 %24
  %26 = load ptr, ptr %25, align 8
  store ptr %26, ptr %4, align 8
  %27 = load ptr, ptr %4, align 8
  %28 = getelementptr inbounds %struct.lxb_dom_node, ptr %27, i32 0, i32 1
  %29 = load i64, ptr %28, align 8
  switch i64 %29, label %38 [
    i64 177, label %30
    i64 184, label %30
    i64 182, label %30
  ]

30:                                               ; preds = %20, %20, %20
  %31 = load ptr, ptr %4, align 8
  %32 = getelementptr inbounds %struct.lxb_dom_node, ptr %31, i32 0, i32 3
  %33 = load i64, ptr %32, align 8
  %34 = icmp eq i64 %33, 2
  br i1 %34, label %35, label %37

35:                                               ; preds = %30
  %36 = load ptr, ptr %4, align 8
  store ptr %36, ptr %2, align 8
  br label %47

37:                                               ; preds = %30
  br label %39

38:                                               ; preds = %20
  br label %39

39:                                               ; preds = %38, %37
  %40 = load ptr, ptr %4, align 8
  %41 = getelementptr inbounds %struct.lxb_dom_node, ptr %40, i32 0, i32 1
  %42 = load i64, ptr %41, align 8
  %43 = call zeroext i1 @lxb_html_tag_is_category(i64 noundef %42, i64 noundef 2, i32 noundef 64)
  br i1 %43, label %44, label %45

44:                                               ; preds = %39
  store ptr null, ptr %2, align 8
  br label %47

45:                                               ; preds = %39
  br label %17

46:                                               ; preds = %17
  store ptr null, ptr %2, align 8
  br label %47

47:                                               ; preds = %46, %44, %35
  %48 = load ptr, ptr %2, align 8
  ret ptr %48
}