; Function Attrs: nofree norecurse nosync nounwind memory(read, inaccessiblemem: none) uwtable
define hidden ptr @lxb_html_tree_element_in_scope_tbody_thead_tfoot(ptr nocapture noundef readonly %0) local_unnamed_addr #7 {
  %2 = getelementptr inbounds i8, ptr %0, i64 32
  %3 = load ptr, ptr %2, align 8
  %4 = getelementptr inbounds i8, ptr %3, i64 16
  %5 = load i64, ptr %4, align 8
  %6 = load ptr, ptr %3, align 8
  br label %7

7:                                                ; preds = %lxb_html_tag_is_category.exit, %1
  %.010 = phi i64 [ %5, %1 ], [ %9, %lxb_html_tag_is_category.exit ]
  %.not = icmp eq i64 %.010, 0
  br i1 %.not, label %23, label %8

8:                                                ; preds = %7
  %9 = add i64 %.010, -1
  %10 = getelementptr inbounds ptr, ptr %6, i64 %9
  %11 = load ptr, ptr %10, align 8
  %12 = getelementptr inbounds i8, ptr %11, i64 8
  %13 = load i64, ptr %12, align 8
  switch i64 %13, label %18 [
    i64 177, label %14
    i64 184, label %14
    i64 182, label %14
  ]

14:                                               ; preds = %8, %8, %8
  %15 = getelementptr inbounds i8, ptr %11, i64 24
  %16 = load i64, ptr %15, align 8
  %17 = icmp eq i64 %16, 2
  br i1 %17, label %23, label %.thread

18:                                               ; preds = %8
  %19 = icmp ult i64 %13, 196
  br i1 %19, label %.thread, label %lxb_html_tag_is_category.exit

.thread:                                          ; preds = %14, %18
  %20 = getelementptr inbounds [196 x [8 x i32]], ptr @lxb_html_tag_res_cats, i64 0, i64 %13, i64 2
  %21 = load i32, ptr %20, align 8
  %22 = and i32 %21, 64
  br label %lxb_html_tag_is_category.exit

lxb_html_tag_is_category.exit:                    ; preds = %18, %.thread
  %.0.in.i = phi i32 [ %22, %.thread ], [ 0, %18 ]
  %.0.i.not = icmp eq i32 %.0.in.i, 0
  br i1 %.0.i.not, label %7, label %23

23:                                               ; preds = %7, %lxb_html_tag_is_category.exit, %14
  %.0 = phi ptr [ %11, %14 ], [ null, %lxb_html_tag_is_category.exit ], [ null, %7 ]
  ret ptr %.0
}